target datalayout = "e-m:e-p270:32:32-p271:32:32-p272:64:64-i64:64-i128:128-f80:128-n8:16:32:64-S128"
target triple = "x86_64-unknown-linux-gnu"

%"class.icu_75::UMutex" = type { [40 x i8], %"struct.std::atomic.0", ptr }
%"struct.std::atomic.0" = type { %"struct.std::__atomic_base.1" }
%"struct.std::__atomic_base.1" = type { ptr }
%"class.icu_75::UObject" = type { ptr }
%"class.icu_75::Mutex" = type { ptr }
%"struct.icu_75::UInitOnce" = type { %"struct.std::atomic", i32 }
%"struct.std::atomic" = type { %"struct.std::__atomic_base" }
%"struct.std::__atomic_base" = type { i32 }
%"class.icu_75::Locale" = type <{ %"class.icu_75::UObject", [12 x i8], [6 x i8], [4 x i8], [2 x i8], i32, [4 x i8], ptr, [157 x i8], [3 x i8], ptr, i8, [7 x i8] }>

@_ZL16gGenderInfoCache = internal global ptr null, align 8
@_ZZN6icu_7510GenderInfo11getInstanceERKNS_6LocaleER10UErrorCodeE15gGenderMetaLock = internal global %"class.icu_75::UMutex" zeroinitializer, align 8
@_ZL15gGenderInitOnce = internal global { { i32 }, i32 } zeroinitializer, align 4

; Function Attrs: mustprogress nounwind uwtable
define linkonce_odr noundef i32 @_ZStanSt12memory_orderSt23__memory_order_modifier(i32 noundef %__m, i32 noundef %__mod) #0 comdat {
entry:
  %__m.addr = alloca i32, align 4
  %__mod.addr = alloca i32, align 4
  store i32 %__m, ptr %__m.addr, align 4
  store i32 %__mod, ptr %__mod.addr, align 4
  %0 = load i32, ptr %__m.addr, align 4
  %1 = load i32, ptr %__mod.addr, align 4
  %and = and i32 %0, %1
  ret i32 %and
}

; Function Attrs: mustprogress nounwind uwtable
define linkonce_odr noundef i32 @_ZN6icu_7516umtx_loadAcquireERSt6atomicIiE(ptr noundef nonnull align 4 dereferenceable(4) %var) #0 comdat {
entry:
  %this.addr.i = alloca ptr, align 8
  %__m.addr.i = alloca i32, align 4
  %__b.i = alloca i32, align 4
  %atomic-temp.i = alloca i32, align 4
  %var.addr = alloca ptr, align 8
  store ptr %var, ptr %var.addr, align 8
  %0 = load ptr, ptr %var.addr, align 8
  store ptr %0, ptr %this.addr.i, align 8
  store i32 2, ptr %__m.addr.i, align 4
  %this1.i = load ptr, ptr %this.addr.i, align 8
  %1 = load i32, ptr %__m.addr.i, align 4
  %call.i = call noundef i32 @_ZStanSt12memory_orderSt23__memory_order_modifier(i32 noundef %1, i32 noundef 65535)
  store i32 %call.i, ptr %__b.i, align 4
  %2 = load i32, ptr %__m.addr.i, align 4
  switch i32 %2, label %monotonic.i [
    i32 1, label %acquire.i
    i32 2, label %acquire.i
    i32 5, label %seqcst.i
  ]

monotonic.i:                                      ; preds = %entry
  %3 = load atomic i32, ptr %this1.i monotonic, align 4
  store i32 %3, ptr %atomic-temp.i, align 4
  br label %_ZNKSt13__atomic_baseIiE4loadESt12memory_order.exit

acquire.i:                                        ; preds = %entry, %entry
  %4 = load atomic i32, ptr %this1.i acquire, align 4
  store i32 %4, ptr %atomic-temp.i, align 4
  br label %_ZNKSt13__atomic_baseIiE4loadESt12memory_order.exit

seqcst.i:                                         ; preds = %entry
  %5 = load atomic i32, ptr %this1.i seq_cst, align 4
  store i32 %5, ptr %atomic-temp.i, align 4
  br label %_ZNKSt13__atomic_baseIiE4loadESt12memory_order.exit

_ZNKSt13__atomic_baseIiE4loadESt12memory_order.exit: ; preds = %seqcst.i, %acquire.i, %monotonic.i
  %6 = load i32, ptr %atomic-temp.i, align 4
  ret i32 %6
}

; Function Attrs: mustprogress nounwind uwtable
define linkonce_odr void @_ZN6icu_755MutexD2Ev(ptr noundef nonnull align 8 dereferenceable(8) %this) unnamed_addr #0 comdat align 2 personality ptr @__gxx_personality_v0 {
entry:
  %this.addr = alloca ptr, align 8
  store ptr %this, ptr %this.addr, align 8
  %this1 = load ptr, ptr %this.addr, align 8
  %fMutex = getelementptr inbounds %"class.icu_75::Mutex", ptr %this1, i32 0, i32 0
  %0 = load ptr, ptr %fMutex, align 8
  invoke void @umtx_unlock_75(ptr noundef %0)
          to label %invoke.cont unwind label %terminate.lpad

invoke.cont:                                      ; preds = %entry
  ret void

terminate.lpad:                                   ; preds = %entry
  %1 = landingpad { ptr, i32 }
          catch ptr null
  %2 = extractvalue { ptr, i32 } %1, 0
  call void @__clang_call_terminate(ptr %2) #11
  unreachable
}

; Function Attrs: mustprogress uwtable
define linkonce_odr void @_ZN6icu_755MutexC2EPNS_6UMutexE(ptr noundef nonnull align 8 dereferenceable(8) %this, ptr noundef %mutex) unnamed_addr #1 comdat align 2 {
entry:
  %this.addr = alloca ptr, align 8
  %mutex.addr = alloca ptr, align 8
  store ptr %this, ptr %this.addr, align 8
  store ptr %mutex, ptr %mutex.addr, align 8
  %this1 = load ptr, ptr %this.addr, align 8
  %fMutex = getelementptr inbounds %"class.icu_75::Mutex", ptr %this1, i32 0, i32 0
  %0 = load ptr, ptr %mutex.addr, align 8
  store ptr %0, ptr %fMutex, align 8
  %fMutex2 = getelementptr inbounds %"class.icu_75::Mutex", ptr %this1, i32 0, i32 0
  %1 = load ptr, ptr %fMutex2, align 8
  call void @umtx_lock_75(ptr noundef %1)
  ret void
}

; Function Attrs: mustprogress nounwind uwtable
define linkonce_odr noundef ptr @_ZNK6icu_756Locale7getNameEv(ptr noundef nonnull align 8 dereferenceable(217) %this) #0 comdat align 2 {
entry:
  %this.addr = alloca ptr, align 8
  store ptr %this, ptr %this.addr, align 8
  %this1 = load ptr, ptr %this.addr, align 8
  %fullName = getelementptr inbounds %"class.icu_75::Locale", ptr %this1, i32 0, i32 7
  %0 = load ptr, ptr %fullName, align 8
  ret ptr %0
}

; Function Attrs: mustprogress nounwind uwtable
define internal noundef signext i8 @_ZL9U_FAILURE10UErrorCode(i32 noundef %code) #0 {
entry:
  %code.addr = alloca i32, align 4
  store i32 %code, ptr %code.addr, align 4
  %0 = load i32, ptr %code.addr, align 4
  %cmp = icmp sgt i32 %0, 0
  %conv = zext i1 %cmp to i8
  ret i8 %conv
}

; Function Attrs: mustprogress uwtable
define linkonce_odr void @_ZN6icu_7513umtx_initOnceERNS_9UInitOnceEPFvR10UErrorCodeES3_(ptr noundef nonnull align 4 dereferenceable(8) %uio, ptr noundef %fp, ptr noundef nonnull align 4 dereferenceable(4) %errCode) #1 comdat {
entry:
  %uio.addr = alloca ptr, align 8
  %fp.addr = alloca ptr, align 8
  %errCode.addr = alloca ptr, align 8
  store ptr %uio, ptr %uio.addr, align 8
  store ptr %fp, ptr %fp.addr, align 8
  store ptr %errCode, ptr %errCode.addr, align 8
  %0 = load ptr, ptr %errCode.addr, align 8
  %1 = load i32, ptr %0, align 4
  %call = call noundef signext i8 @_ZL9U_FAILURE10UErrorCode(i32 noundef %1)
  %tobool = icmp ne i8 %call, 0
  br i1 %tobool, label %if.then, label %if.end

if.then:                                          ; preds = %entry
  br label %if.end11

if.end:                                           ; preds = %entry
  %2 = load ptr, ptr %uio.addr, align 8
  %fState = getelementptr inbounds %"struct.icu_75::UInitOnce", ptr %2, i32 0, i32 0
  %call1 = call noundef i32 @_ZN6icu_7516umtx_loadAcquireERSt6atomicIiE(ptr noundef nonnull align 4 dereferenceable(4) %fState)
  %cmp = icmp ne i32 %call1, 2
  br i1 %cmp, label %land.lhs.true, label %if.else

land.lhs.true:                                    ; preds = %if.end
  %3 = load ptr, ptr %uio.addr, align 8
  %call2 = call noundef signext i8 @_ZN6icu_7520umtx_initImplPreInitERNS_9UInitOnceE(ptr noundef nonnull align 4 dereferenceable(8) %3)
  %tobool3 = icmp ne i8 %call2, 0
  br i1 %tobool3, label %if.then4, label %if.else

if.then4:                                         ; preds = %land.lhs.true
  %4 = load ptr, ptr %fp.addr, align 8
  %5 = load ptr, ptr %errCode.addr, align 8
  call void %4(ptr noundef nonnull align 4 dereferenceable(4) %5)
  %6 = load ptr, ptr %errCode.addr, align 8
  %7 = load i32, ptr %6, align 4
  %8 = load ptr, ptr %uio.addr, align 8
  %fErrCode = getelementptr inbounds %"struct.icu_75::UInitOnce", ptr %8, i32 0, i32 1
  store i32 %7, ptr %fErrCode, align 4
  %9 = load ptr, ptr %uio.addr, align 8
  call void @_ZN6icu_7521umtx_initImplPostInitERNS_9UInitOnceE(ptr noundef nonnull align 4 dereferenceable(8) %9)
  br label %if.end11

if.else:                                          ; preds = %land.lhs.true, %if.end
  %10 = load ptr, ptr %uio.addr, align 8
  %fErrCode5 = getelementptr inbounds %"struct.icu_75::UInitOnce", ptr %10, i32 0, i32 1
  %11 = load i32, ptr %fErrCode5, align 4
  %call6 = call noundef signext i8 @_ZL9U_FAILURE10UErrorCode(i32 noundef %11)
  %tobool7 = icmp ne i8 %call6, 0
  br i1 %tobool7, label %if.then8, label %if.end10

if.then8:                                         ; preds = %if.else
  %12 = load ptr, ptr %uio.addr, align 8
  %fErrCode9 = getelementptr inbounds %"struct.icu_75::UInitOnce", ptr %12, i32 0, i32 1
  %13 = load i32, ptr %fErrCode9, align 4
  %14 = load ptr, ptr %errCode.addr, align 8
  store i32 %13, ptr %14, align 4
  br label %if.end10

if.end10:                                         ; preds = %if.then8, %if.else
  br label %if.end11

if.end11:                                         ; preds = %if.end10, %if.then4, %if.then
  ret void
}

; Function Attrs: mustprogress uwtable
define noundef ptr @_ZN6icu_7510GenderInfo11getInstanceERKNS_6LocaleER10UErrorCode(ptr noundef nonnull align 8 dereferenceable(217) %locale, ptr noundef nonnull align 4 dereferenceable(4) %status) #1 align 2 personality ptr @__gxx_personality_v0 {
entry:
  %retval = alloca ptr, align 8
  %locale.addr = alloca ptr, align 8
  %status.addr = alloca ptr, align 8
  %result = alloca ptr, align 8
  %key = alloca ptr, align 8
  %lock = alloca %"class.icu_75::Mutex", align 8
  %exn.slot = alloca ptr, align 8
  %ehselector.slot = alloca i32, align 4
  %lock11 = alloca %"class.icu_75::Mutex", align 8
  %temp = alloca ptr, align 8
  %cleanup.dest.slot = alloca i32, align 4
  store ptr %locale, ptr %locale.addr, align 8
  store ptr %status, ptr %status.addr, align 8
  %0 = load ptr, ptr %status.addr, align 8
  call void @_ZN6icu_7513umtx_initOnceERNS_9UInitOnceEPFvR10UErrorCodeES3_(ptr noundef nonnull align 4 dereferenceable(8) @_ZL15gGenderInitOnce, ptr noundef @_ZN6icu_7520GenderInfo_initCacheER10UErrorCode, ptr noundef nonnull align 4 dereferenceable(4) %0)
  %1 = load ptr, ptr %status.addr, align 8
  %2 = load i32, ptr %1, align 4
  %call = call noundef signext i8 @_ZL9U_FAILURE10UErrorCode(i32 noundef %2)
  %tobool = icmp ne i8 %call, 0
  br i1 %tobool, label %if.then, label %if.end

if.then:                                          ; preds = %entry
  store ptr null, ptr %retval, align 8
  br label %return

if.end:                                           ; preds = %entry
  store ptr null, ptr %result, align 8
  %3 = load ptr, ptr %locale.addr, align 8
  %call1 = call noundef ptr @_ZNK6icu_756Locale7getNameEv(ptr noundef nonnull align 8 dereferenceable(217) %3)
  store ptr %call1, ptr %key, align 8
  call void @_ZN6icu_755MutexC2EPNS_6UMutexE(ptr noundef nonnull align 8 dereferenceable(8) %lock, ptr noundef @_ZZN6icu_7510GenderInfo11getInstanceERKNS_6LocaleER10UErrorCodeE15gGenderMetaLock)
  %4 = load ptr, ptr @_ZL16gGenderInfoCache, align 8
  %5 = load ptr, ptr %key, align 8
  %call2 = invoke ptr @uhash_get_75(ptr noundef %4, ptr noundef %5)
          to label %invoke.cont unwind label %lpad

invoke.cont:                                      ; preds = %if.end
  store ptr %call2, ptr %result, align 8
  call void @_ZN6icu_755MutexD2Ev(ptr noundef nonnull align 8 dereferenceable(8) %lock) #9
  %6 = load ptr, ptr %result, align 8
  %tobool3 = icmp ne ptr %6, null
  br i1 %tobool3, label %if.then4, label %if.end5

if.then4:                                         ; preds = %invoke.cont
  %7 = load ptr, ptr %result, align 8
  store ptr %7, ptr %retval, align 8
  br label %return

lpad:                                             ; preds = %if.end
  %8 = landingpad { ptr, i32 }
          cleanup
  %9 = extractvalue { ptr, i32 } %8, 0
  store ptr %9, ptr %exn.slot, align 8
  %10 = extractvalue { ptr, i32 } %8, 1
  store i32 %10, ptr %ehselector.slot, align 4
  call void @_ZN6icu_755MutexD2Ev(ptr noundef nonnull align 8 dereferenceable(8) %lock) #9
  br label %eh.resume

if.end5:                                          ; preds = %invoke.cont
  %11 = load ptr, ptr %locale.addr, align 8
  %12 = load ptr, ptr %status.addr, align 8
  %call6 = call noundef ptr @_ZN6icu_7510GenderInfo12loadInstanceERKNS_6LocaleER10UErrorCode(ptr noundef nonnull align 8 dereferenceable(217) %11, ptr noundef nonnull align 4 dereferenceable(4) %12)
  store ptr %call6, ptr %result, align 8
  %13 = load ptr, ptr %status.addr, align 8
  %14 = load i32, ptr %13, align 4
  %call7 = call noundef signext i8 @_ZL9U_FAILURE10UErrorCode(i32 noundef %14)
  %tobool8 = icmp ne i8 %call7, 0
  br i1 %tobool8, label %if.then9, label %if.end10

if.then9:                                         ; preds = %if.end5
  store ptr null, ptr %retval, align 8
  br label %return

if.end10:                                         ; preds = %if.end5
  call void @_ZN6icu_755MutexC2EPNS_6UMutexE(ptr noundef nonnull align 8 dereferenceable(8) %lock11, ptr noundef @_ZZN6icu_7510GenderInfo11getInstanceERKNS_6LocaleER10UErrorCodeE15gGenderMetaLock)
  %15 = load ptr, ptr @_ZL16gGenderInfoCache, align 8
  %16 = load ptr, ptr %key, align 8
  %call14 = invoke ptr @uhash_get_75(ptr noundef %15, ptr noundef %16)
          to label %invoke.cont13 unwind label %lpad12

invoke.cont13:                                    ; preds = %if.end10
  store ptr %call14, ptr %temp, align 8
  %17 = load ptr, ptr %temp, align 8
  %tobool15 = icmp ne ptr %17, null
  br i1 %tobool15, label %if.then16, label %if.else

if.then16:                                        ; preds = %invoke.cont13
  %18 = load ptr, ptr %temp, align 8
  store ptr %18, ptr %result, align 8
  br label %if.end26

lpad12:                                           ; preds = %invoke.cont19, %invoke.cont17, %if.else, %if.end10
  %19 = landingpad { ptr, i32 }
          cleanup
  %20 = extractvalue { ptr, i32 } %19, 0
  store ptr %20, ptr %exn.slot, align 8
  %21 = extractvalue { ptr, i32 } %19, 1
  store i32 %21, ptr %ehselector.slot, align 4
  call void @_ZN6icu_755MutexD2Ev(ptr noundef nonnull align 8 dereferenceable(8) %lock11) #9
  br label %eh.resume

if.else:                                          ; preds = %invoke.cont13
  %22 = load ptr, ptr @_ZL16gGenderInfoCache, align 8
  %23 = load ptr, ptr %key, align 8
  %call18 = invoke ptr @uprv_strdup_75(ptr noundef %23)
          to label %invoke.cont17 unwind label %lpad12

invoke.cont17:                                    ; preds = %if.else
  %24 = load ptr, ptr %result, align 8
  %25 = load ptr, ptr %status.addr, align 8
  %call20 = invoke ptr @uhash_put_75(ptr noundef %22, ptr noundef %call18, ptr noundef %24, ptr noundef %25)
          to label %invoke.cont19 unwind label %lpad12

invoke.cont19:                                    ; preds = %invoke.cont17
  %26 = load ptr, ptr %status.addr, align 8
  %27 = load i32, ptr %26, align 4
  %call22 = invoke noundef signext i8 @_ZL9U_FAILURE10UErrorCode(i32 noundef %27)
          to label %invoke.cont21 unwind label %lpad12

invoke.cont21:                                    ; preds = %invoke.cont19
  %tobool23 = icmp ne i8 %call22, 0
  br i1 %tobool23, label %if.then24, label %if.end25

if.then24:                                        ; preds = %invoke.cont21
  store ptr null, ptr %retval, align 8
  store i32 1, ptr %cleanup.dest.slot, align 4
  br label %cleanup

if.end25:                                         ; preds = %invoke.cont21
  br label %if.end26

if.end26:                                         ; preds = %if.end25, %if.then16
  store i32 0, ptr %cleanup.dest.slot, align 4
  br label %cleanup

cleanup:                                          ; preds = %if.end26, %if.then24
  call void @_ZN6icu_755MutexD2Ev(ptr noundef nonnull align 8 dereferenceable(8) %lock11) #9
  %cleanup.dest = load i32, ptr %cleanup.dest.slot, align 4
  switch i32 %cleanup.dest, label %unreachable [
    i32 0, label %cleanup.cont
    i32 1, label %return
  ]

cleanup.cont:                                     ; preds = %cleanup
  %28 = load ptr, ptr %result, align 8
  store ptr %28, ptr %retval, align 8
  br label %return

return:                                           ; preds = %cleanup.cont, %cleanup, %if.then9, %if.then4, %if.then
  %29 = load ptr, ptr %retval, align 8
  ret ptr %29

eh.resume:                                        ; preds = %lpad12, %lpad
  %exn = load ptr, ptr %exn.slot, align 8
  %sel = load i32, ptr %ehselector.slot, align 4
  %lpad.val = insertvalue { ptr, i32 } poison, ptr %exn, 0
  %lpad.val27 = insertvalue { ptr, i32 } %lpad.val, i32 %sel, 1
  resume { ptr, i32 } %lpad.val27

unreachable:                                      ; preds = %cleanup
  unreachable
}