; Function Attrs: mustprogress uwtable
define noundef ptr @_ZN6icu_7510GenderInfo11getInstanceERKNS_6LocaleER10UErrorCode(ptr nocapture noundef nonnull readonly align 8 dereferenceable(217) %locale, ptr noundef nonnull align 4 dereferenceable(4) %status) local_unnamed_addr #1 align 2 personality ptr @__gxx_personality_v0 {
entry:
  %0 = load i32, ptr %status, align 4
  %cmp.i.i = icmp slt i32 %0, 1
  br i1 %cmp.i.i, label %if.end.i, label %return

if.end.i:                                         ; preds = %entry
  %1 = load atomic i32, ptr @_ZL15gGenderInitOnce acquire, align 4
  %cmp.not.i = icmp eq i32 %1, 2
  br i1 %cmp.not.i, label %if.else.i, label %land.lhs.true.i

land.lhs.true.i:                                  ; preds = %if.end.i
  %call2.i = tail call noundef signext i8 @_ZN6icu_7520umtx_initImplPreInitERNS_9UInitOnceE(ptr noundef nonnull align 4 dereferenceable(8) @_ZL15gGenderInitOnce)
  %tobool3.not.i = icmp eq i8 %call2.i, 0
  br i1 %tobool3.not.i, label %if.else.i, label %if.then4.i

if.then4.i:                                       ; preds = %land.lhs.true.i
  tail call void @_ZN6icu_7520GenderInfo_initCacheER10UErrorCode(ptr noundef nonnull align 4 dereferenceable(4) %status)
  %2 = load i32, ptr %status, align 4
  store i32 %2, ptr getelementptr inbounds ({ { i32 }, i32 }, ptr @_ZL15gGenderInitOnce, i64 0, i32 1), align 4
  tail call void @_ZN6icu_7521umtx_initImplPostInitERNS_9UInitOnceE(ptr noundef nonnull align 4 dereferenceable(8) @_ZL15gGenderInitOnce)
  br label %_ZN6icu_7513umtx_initOnceERNS_9UInitOnceEPFvR10UErrorCodeES3_.exit

if.else.i:                                        ; preds = %land.lhs.true.i, %if.end.i
  %3 = load i32, ptr getelementptr inbounds ({ { i32 }, i32 }, ptr @_ZL15gGenderInitOnce, i64 0, i32 1), align 4
  %cmp.i9.i = icmp slt i32 %3, 1
  br i1 %cmp.i9.i, label %_ZN6icu_7513umtx_initOnceERNS_9UInitOnceEPFvR10UErrorCodeES3_.exit, label %if.then8.i

if.then8.i:                                       ; preds = %if.else.i
  store i32 %3, ptr %status, align 4
  br label %return

_ZN6icu_7513umtx_initOnceERNS_9UInitOnceEPFvR10UErrorCodeES3_.exit: ; preds = %if.then4.i, %if.else.i
  %.pr = load i32, ptr %status, align 4
  %cmp.i = icmp slt i32 %.pr, 1
  br i1 %cmp.i, label %if.end, label %return

if.end:                                           ; preds = %_ZN6icu_7513umtx_initOnceERNS_9UInitOnceEPFvR10UErrorCodeES3_.exit
  %fullName.i = getelementptr inbounds i8, ptr %locale, i64 40
  %4 = load ptr, ptr %fullName.i, align 8
  tail call void @umtx_lock_75(ptr noundef nonnull @_ZZN6icu_7510GenderInfo11getInstanceERKNS_6LocaleER10UErrorCodeE15gGenderMetaLock)
  %5 = load ptr, ptr @_ZL16gGenderInfoCache, align 8
  %call2 = invoke ptr @uhash_get_75(ptr noundef %5, ptr noundef %4)
          to label %invoke.cont unwind label %lpad

invoke.cont:                                      ; preds = %if.end
  invoke void @umtx_unlock_75(ptr noundef nonnull @_ZZN6icu_7510GenderInfo11getInstanceERKNS_6LocaleER10UErrorCodeE15gGenderMetaLock)
          to label %_ZN6icu_755MutexD2Ev.exit unwind label %terminate.lpad.i

terminate.lpad.i:                                 ; preds = %invoke.cont
  %6 = landingpad { ptr, i32 }
          catch ptr null
  %7 = extractvalue { ptr, i32 } %6, 0
  tail call void @__clang_call_terminate(ptr %7) #15
  unreachable

_ZN6icu_755MutexD2Ev.exit:                        ; preds = %invoke.cont
  %tobool3.not = icmp eq ptr %call2, null
  br i1 %tobool3.not, label %if.end5, label %return

lpad:                                             ; preds = %if.end
  %8 = landingpad { ptr, i32 }
          cleanup
  invoke void @umtx_unlock_75(ptr noundef nonnull @_ZZN6icu_7510GenderInfo11getInstanceERKNS_6LocaleER10UErrorCodeE15gGenderMetaLock)
          to label %eh.resume unwind label %terminate.lpad.i15

terminate.lpad.i15:                               ; preds = %lpad
  %9 = landingpad { ptr, i32 }
          catch ptr null
  %10 = extractvalue { ptr, i32 } %9, 0
  tail call void @__clang_call_terminate(ptr %10) #15
  unreachable

if.end5:                                          ; preds = %_ZN6icu_755MutexD2Ev.exit
  %call6 = tail call noundef ptr @_ZN6icu_7510GenderInfo12loadInstanceERKNS_6LocaleER10UErrorCode(ptr noundef nonnull align 8 dereferenceable(217) %locale, ptr noundef nonnull align 4 dereferenceable(4) %status)
  %11 = load i32, ptr %status, align 4
  %cmp.i17 = icmp slt i32 %11, 1
  br i1 %cmp.i17, label %if.end10, label %return

if.end10:                                         ; preds = %if.end5
  tail call void @umtx_lock_75(ptr noundef nonnull @_ZZN6icu_7510GenderInfo11getInstanceERKNS_6LocaleER10UErrorCodeE15gGenderMetaLock)
  %12 = load ptr, ptr @_ZL16gGenderInfoCache, align 8
  %call14 = invoke ptr @uhash_get_75(ptr noundef %12, ptr noundef %4)
          to label %invoke.cont13 unwind label %lpad12

invoke.cont13:                                    ; preds = %if.end10
  %tobool15.not = icmp eq ptr %call14, null
  br i1 %tobool15.not, label %if.else, label %cleanup

lpad12:                                           ; preds = %invoke.cont17, %if.else, %if.end10
  %13 = landingpad { ptr, i32 }
          cleanup
  invoke void @umtx_unlock_75(ptr noundef nonnull @_ZZN6icu_7510GenderInfo11getInstanceERKNS_6LocaleER10UErrorCodeE15gGenderMetaLock)
          to label %eh.resume unwind label %terminate.lpad.i19

terminate.lpad.i19:                               ; preds = %lpad12
  %14 = landingpad { ptr, i32 }
          catch ptr null
  %15 = extractvalue { ptr, i32 } %14, 0
  tail call void @__clang_call_terminate(ptr %15) #15
  unreachable

if.else:                                          ; preds = %invoke.cont13
  %16 = load ptr, ptr @_ZL16gGenderInfoCache, align 8
  %call18 = invoke ptr @uprv_strdup_75(ptr noundef %4)
          to label %invoke.cont17 unwind label %lpad12

invoke.cont17:                                    ; preds = %if.else
  %call20 = invoke ptr @uhash_put_75(ptr noundef %16, ptr noundef %call18, ptr noundef %call6, ptr noundef nonnull %status)
          to label %invoke.cont19 unwind label %lpad12

invoke.cont19:                                    ; preds = %invoke.cont17
  %17 = load i32, ptr %status, align 4
  %cmp.i21 = icmp slt i32 %17, 1
  %18 = select i1 %cmp.i21, ptr %call6, ptr null
  br label %cleanup

cleanup:                                          ; preds = %invoke.cont19, %invoke.cont13
  %cleanup.dest.slot.0 = phi ptr [ %call14, %invoke.cont13 ], [ %18, %invoke.cont19 ]
  invoke void @umtx_unlock_75(ptr noundef nonnull @_ZZN6icu_7510GenderInfo11getInstanceERKNS_6LocaleER10UErrorCodeE15gGenderMetaLock)
          to label %return unwind label %terminate.lpad.i23

terminate.lpad.i23:                               ; preds = %cleanup
  %19 = landingpad { ptr, i32 }
          catch ptr null
  %20 = extractvalue { ptr, i32 } %19, 0
  tail call void @__clang_call_terminate(ptr %20) #15
  unreachable

return:                                           ; preds = %if.then8.i, %entry, %cleanup, %if.end5, %_ZN6icu_755MutexD2Ev.exit, %_ZN6icu_7513umtx_initOnceERNS_9UInitOnceEPFvR10UErrorCodeES3_.exit
  %retval.1 = phi ptr [ null, %_ZN6icu_7513umtx_initOnceERNS_9UInitOnceEPFvR10UErrorCodeES3_.exit ], [ %call2, %_ZN6icu_755MutexD2Ev.exit ], [ null, %if.end5 ], [ %cleanup.dest.slot.0, %cleanup ], [ null, %entry ], [ null, %if.then8.i ]
  ret ptr %retval.1

eh.resume:                                        ; preds = %lpad12, %lpad
  %.pn = phi { ptr, i32 } [ %8, %lpad ], [ %13, %lpad12 ]
  resume { ptr, i32 } %.pn
}